; Function Attrs: mustprogress uwtable
define hidden void @_ZNK4cvc58internal7printer3ast10AstPrinter17toStreamModelTermERSoRKNS0_12NodeTemplateILb1EEES8_(ptr nonnull readnone align 8 captures(none) %0, ptr noundef nonnull align 8 dereferenceable(8) %1, ptr noundef nonnull readonly align 8 captures(none) dereferenceable(8) %2, ptr noundef nonnull readonly align 8 captures(none) dereferenceable(8) %3) unnamed_addr #3 align 2 personality ptr @__gxx_personality_v0 {
_ZN4cvc58internallsERSoNS0_12NodeTemplateILb0EEE.exit:
  %4 = tail call noundef nonnull align 8 dereferenceable(8) ptr @_ZSt16__ostream_insertIcSt11char_traitsIcEERSt13basic_ostreamIT_T0_ES6_PKS3_l(ptr noundef nonnull align 8 dereferenceable(8) %1, ptr noundef nonnull @.str.6, i64 noundef 1)
  %5 = load ptr, ptr %2, align 8, !tbaa !19
  tail call void @_ZNK4cvc58internal4expr9NodeValue8toStreamERSo(ptr noundef nonnull align 8 dereferenceable(24) %5, ptr noundef nonnull align 8 dereferenceable(8) %1)
  %6 = tail call noundef nonnull align 8 dereferenceable(8) ptr @_ZSt16__ostream_insertIcSt11char_traitsIcEERSt13basic_ostreamIT_T0_ES6_PKS3_l(ptr noundef nonnull align 8 dereferenceable(8) %1, ptr noundef nonnull @.str.7, i64 noundef 1)
  %7 = load ptr, ptr %3, align 8, !tbaa !19
  tail call void @_ZNK4cvc58internal4expr9NodeValue8toStreamERSo(ptr noundef nonnull align 8 dereferenceable(24) %7, ptr noundef nonnull align 8 dereferenceable(8) %1)
  %8 = tail call noundef nonnull align 8 dereferenceable(8) ptr @_ZSt16__ostream_insertIcSt11char_traitsIcEERSt13basic_ostreamIT_T0_ES6_PKS3_l(ptr noundef nonnull align 8 dereferenceable(8) %1, ptr noundef nonnull @.str.5, i64 noundef 1)
  %9 = load ptr, ptr %1, align 8, !tbaa !3
  %10 = getelementptr i8, ptr %9, i64 -24
  %11 = load i64, ptr %10, align 8
  %12 = getelementptr inbounds i8, ptr %1, i64 %11
  %13 = getelementptr inbounds nuw i8, ptr %12, i64 240
  %14 = load ptr, ptr %13, align 8, !tbaa !69
  %.not.i.i.i = icmp eq ptr %14, null
  br i1 %.not.i.i.i, label %.noexc, label %_ZSt13__check_facetISt5ctypeIcEERKT_PS3_.exit.i.i

.noexc:                                           ; preds = %_ZN4cvc58internallsERSoNS0_12NodeTemplateILb0EEE.exit
  tail call void @_ZSt16__throw_bad_castv() #24
  unreachable

_ZSt13__check_facetISt5ctypeIcEERKT_PS3_.exit.i.i: ; preds = %_ZN4cvc58internallsERSoNS0_12NodeTemplateILb0EEE.exit
  %15 = getelementptr inbounds nuw i8, ptr %14, i64 56
  %16 = load i8, ptr %15, align 8, !tbaa !77
  %.not.i1.i.i = icmp eq i8 %16, 0
  br i1 %.not.i1.i.i, label %.noexc8, label %17

17:                                               ; preds = %_ZSt13__check_facetISt5ctypeIcEERKT_PS3_.exit.i.i
  %18 = getelementptr inbounds nuw i8, ptr %14, i64 67
  %19 = load i8, ptr %18, align 1, !tbaa !14
  br label %_ZNKSt9basic_iosIcSt11char_traitsIcEE5widenEc.exit.i

.noexc8:                                          ; preds = %_ZSt13__check_facetISt5ctypeIcEERKT_PS3_.exit.i.i
  tail call void @_ZNKSt5ctypeIcE13_M_widen_initEv(ptr noundef nonnull align 8 dereferenceable(570) %14)
  %20 = load ptr, ptr %14, align 8, !tbaa !3
  %21 = getelementptr inbounds nuw i8, ptr %20, i64 48
  %22 = load ptr, ptr %21, align 8
  %23 = tail call noundef signext i8 %22(ptr noundef nonnull align 8 dereferenceable(570) %14, i8 noundef signext 10)
  br label %_ZNKSt9basic_iosIcSt11char_traitsIcEE5widenEc.exit.i

_ZNKSt9basic_iosIcSt11char_traitsIcEE5widenEc.exit.i: ; preds = %.noexc8, %17
  %.0.i.i.i = phi i8 [ %19, %17 ], [ %23, %.noexc8 ]
  %24 = tail call noundef nonnull align 8 dereferenceable(8) ptr @_ZNSo3putEc(ptr noundef nonnull align 8 dereferenceable(8) %1, i8 noundef signext %.0.i.i.i)
  %25 = tail call noundef nonnull align 8 dereferenceable(8) ptr @_ZNSo5flushEv(ptr noundef nonnull align 8 dereferenceable(8) %24)
  ret void
}